target datalayout = "e-m:e-p270:32:32-p271:32:32-p272:64:64-i64:64-i128:128-f80:128-n8:16:32:64-S128"
target triple = "x86_64-unknown-linux-gnu"

%"class.v8::Maybe.257" = type { i8, i32 }
%"class.v8::Maybe.258" = type { i8, i32 }

; Function Attrs: mustprogress nounwind uwtable
define linkonce_odr dso_local void @_ZN2v85MaybeIiEC2EOi(ptr noundef nonnull align 4 dereferenceable(8) %this, ptr noundef nonnull align 4 dereferenceable(4) %t) unnamed_addr #4 comdat align 2 {
entry:
  %this.addr = alloca ptr, align 8
  %t.addr = alloca ptr, align 8
  store ptr %this, ptr %this.addr, align 8
  store ptr %t, ptr %t.addr, align 8
  %this1 = load ptr, ptr %this.addr, align 8
  %has_value_ = getelementptr inbounds %"class.v8::Maybe.258", ptr %this1, i32 0, i32 0
  store i8 1, ptr %has_value_, align 4
  %value_ = getelementptr inbounds %"class.v8::Maybe.258", ptr %this1, i32 0, i32 1
  %0 = load ptr, ptr %t.addr, align 8
  %1 = load i32, ptr %0, align 4
  store i32 %1, ptr %value_, align 4
  ret void
}

; Function Attrs: mustprogress nounwind uwtable
define linkonce_odr dso_local void @_ZN2v85MaybeIiEC2Ev(ptr noundef nonnull align 4 dereferenceable(8) %this) unnamed_addr #4 comdat align 2 {
entry:
  %this.addr = alloca ptr, align 8
  store ptr %this, ptr %this.addr, align 8
  %this1 = load ptr, ptr %this.addr, align 8
  %has_value_ = getelementptr inbounds %"class.v8::Maybe.258", ptr %this1, i32 0, i32 0
  store i8 0, ptr %has_value_, align 4
  ret void
}

; Function Attrs: mustprogress nounwind uwtable
define linkonce_odr dso_local i64 @_ZN2v84JustIiTnPNSt9enable_ifIXntsr3stdE21is_lvalue_reference_vIT_EEvE4typeELPv0EEENS_5MaybeIS2_EEOS2_(ptr noundef nonnull align 4 dereferenceable(4) %t) #4 comdat {
entry:
  %retval = alloca %"class.v8::Maybe.258", align 4
  %t.addr = alloca ptr, align 8
  store ptr %t, ptr %t.addr, align 8
  %0 = load ptr, ptr %t.addr, align 8
  call void @_ZN2v85MaybeIiEC2EOi(ptr noundef nonnull align 4 dereferenceable(8) %retval, ptr noundef nonnull align 4 dereferenceable(4) %0)
  %1 = load i64, ptr %retval, align 4
  ret i64 %1
}

; Function Attrs: mustprogress nounwind uwtable
define linkonce_odr dso_local i64 @_ZN2v87NothingIiEENS_5MaybeIT_EEv() #4 comdat {
entry:
  %retval = alloca %"class.v8::Maybe.258", align 4
  call void @_ZN2v85MaybeIiEC2Ev(ptr noundef nonnull align 4 dereferenceable(8) %retval)
  %0 = load i64, ptr %retval, align 4
  ret i64 %0
}

; Function Attrs: mustprogress nounwind uwtable
define dso_local i64 @_ZN4node15EmitProcessExitEPNS_11EnvironmentE(ptr noundef %env) #4 {
entry:
  %this.addr.i8 = alloca ptr, align 8
  %this.addr.i5 = alloca ptr, align 8
  %this.addr.i = alloca ptr, align 8
  %retval = alloca %"class.v8::Maybe.258", align 4
  %env.addr = alloca ptr, align 8
  %result = alloca %"class.v8::Maybe.257", align 4
  %ref.tmp = alloca i32, align 4
  store ptr %env, ptr %env.addr, align 8
  %0 = load ptr, ptr %env.addr, align 8
  %call = call i64 @_ZN4node23EmitProcessExitInternalEPNS_11EnvironmentE(ptr noundef %0)
  store i64 %call, ptr %result, align 4
  store ptr %result, ptr %this.addr.i, align 8
  %this1.i = load ptr, ptr %this.addr.i, align 8
  %1 = load i8, ptr %this1.i, align 4
  %tobool.i = trunc i8 %1 to i1
  %lnot.i = xor i1 %tobool.i, true
  br i1 %lnot.i, label %if.then, label %if.end

if.then:                                          ; preds = %entry
  %call2 = call i64 @_ZN2v87NothingIiEENS_5MaybeIT_EEv()
  store i64 %call2, ptr %retval, align 4
  br label %return

if.end:                                           ; preds = %entry
  store ptr %result, ptr %this.addr.i5, align 8
  %this1.i6 = load ptr, ptr %this.addr.i5, align 8
  store ptr %this1.i6, ptr %this.addr.i8, align 8
  %this1.i9 = load ptr, ptr %this.addr.i8, align 8
  %2 = load i8, ptr %this1.i9, align 4
  %tobool.i10 = trunc i8 %2 to i1
  %lnot3.i = xor i1 %tobool.i10, true
  br i1 %lnot3.i, label %if.then.i, label %_ZNKR2v85MaybeIN4node8ExitCodeEE8FromJustEv.exit

if.then.i:                                        ; preds = %if.end
  call void @_ZN2v812api_internal17FromJustIsNothingEv() #3
  br label %_ZNKR2v85MaybeIN4node8ExitCodeEE8FromJustEv.exit

_ZNKR2v85MaybeIN4node8ExitCodeEE8FromJustEv.exit: ; preds = %if.then.i, %if.end
  %value_.i = getelementptr inbounds %"class.v8::Maybe.257", ptr %this1.i6, i32 0, i32 1
  %3 = load i32, ptr %value_.i, align 4
  store i32 %3, ptr %ref.tmp, align 4
  %call4 = call i64 @_ZN2v84JustIiTnPNSt9enable_ifIXntsr3stdE21is_lvalue_reference_vIT_EEvE4typeELPv0EEENS_5MaybeIS2_EEOS2_(ptr noundef nonnull align 4 dereferenceable(4) %ref.tmp)
  store i64 %call4, ptr %retval, align 4
  br label %return

return:                                           ; preds = %_ZNKR2v85MaybeIN4node8ExitCodeEE8FromJustEv.exit, %if.then
  %4 = load i64, ptr %retval, align 4
  ret i64 %4
}